target datalayout = "e-m:e-p270:32:32-p271:32:32-p272:64:64-i64:64-i128:128-f80:128-n8:16:32:64-S128"
target triple = "x86_64-pc-linux-gnu"

%struct.Abc_Frame_t_ = type { ptr, ptr, ptr, ptr, ptr, ptr, ptr, ptr, ptr, ptr, i32, i32, i32, i32, i32, ptr, float, float, i32, i32, ptr, ptr, ptr, double, double, ptr, ptr, ptr, ptr, ptr, ptr, ptr, ptr, ptr, ptr, ptr, ptr, float, ptr, i32, ptr, ptr, ptr, ptr, ptr, i32, i32, i32, i32, i32, i32, ptr, ptr, ptr, ptr, ptr, ptr, i32, i32, ptr, ptr, ptr, ptr, ptr, ptr, ptr, ptr, ptr, ptr, ptr, ptr, ptr, ptr, ptr, ptr, ptr, ptr, ptr, ptr, ptr, ptr, ptr, ptr, ptr, ptr, ptr, ptr, ptr, ptr }
%struct.MvCommand = type { ptr, ptr, ptr, i32 }

@.str = private unnamed_addr constant [30 x i8] c"Cmd warning: redefining '%s'\0A\00", align 1

; Function Attrs: nounwind uwtable
define void @Cmd_CommandAdd(ptr noundef %0, ptr noundef %1, ptr noundef %2, ptr noundef %3, i32 noundef %4) #0 {
  %6 = alloca ptr, align 8
  %7 = alloca ptr, align 8
  %8 = alloca ptr, align 8
  %9 = alloca ptr, align 8
  %10 = alloca i32, align 4
  %11 = alloca ptr, align 8
  %12 = alloca ptr, align 8
  %13 = alloca ptr, align 8
  %14 = alloca i32, align 4
  store ptr %0, ptr %6, align 8, !tbaa !3
  store ptr %1, ptr %7, align 8, !tbaa !8
  store ptr %2, ptr %8, align 8, !tbaa !8
  store ptr %3, ptr %9, align 8, !tbaa !26
  store i32 %4, ptr %10, align 4, !tbaa !27
  call void @llvm.lifetime.start.p0(i64 8, ptr %11) #8
  call void @llvm.lifetime.start.p0(i64 8, ptr %12) #8
  call void @llvm.lifetime.start.p0(i64 8, ptr %13) #8
  call void @llvm.lifetime.start.p0(i64 4, ptr %14) #8
  %15 = load ptr, ptr %8, align 8, !tbaa !8
  store ptr %15, ptr %11, align 8, !tbaa !8
  %16 = load ptr, ptr %6, align 8, !tbaa !3
  %17 = getelementptr inbounds nuw %struct.Abc_Frame_t_, ptr %16, i32 0, i32 2
  %18 = load ptr, ptr %17, align 8, !tbaa !10
  %19 = call i32 @st__delete(ptr noundef %18, ptr noundef %11, ptr noundef %12)
  %20 = icmp ne i32 %19, 0
  br i1 %20, label %21, label %28

21:                                               ; preds = %5
  %22 = load ptr, ptr %6, align 8, !tbaa !3
  %23 = getelementptr inbounds nuw %struct.Abc_Frame_t_, ptr %22, i32 0, i32 21
  %24 = load ptr, ptr %23, align 8, !tbaa !28
  %25 = load ptr, ptr %8, align 8, !tbaa !8
  %26 = call i32 (ptr, ptr, ...) @fprintf(ptr noundef %24, ptr noundef @.str, ptr noundef %25) #8
  %27 = load ptr, ptr %12, align 8, !tbaa !8
  call void @CmdCommandFree(ptr noundef %27)
  br label %28

28:                                               ; preds = %21, %5
  %29 = call noalias ptr @malloc(i64 noundef 32) #9
  store ptr %29, ptr %13, align 8, !tbaa !29
  %30 = load ptr, ptr %8, align 8, !tbaa !8
  %31 = call ptr @Extra_UtilStrsav(ptr noundef %30)
  %32 = load ptr, ptr %13, align 8, !tbaa !29
  %33 = getelementptr inbounds nuw %struct.MvCommand, ptr %32, i32 0, i32 0
  store ptr %31, ptr %33, align 8, !tbaa !31
  %34 = load ptr, ptr %7, align 8, !tbaa !8
  %35 = call ptr @Extra_UtilStrsav(ptr noundef %34)
  %36 = load ptr, ptr %13, align 8, !tbaa !29
  %37 = getelementptr inbounds nuw %struct.MvCommand, ptr %36, i32 0, i32 1
  store ptr %35, ptr %37, align 8, !tbaa !33
  %38 = load ptr, ptr %9, align 8, !tbaa !26
  %39 = load ptr, ptr %13, align 8, !tbaa !29
  %40 = getelementptr inbounds nuw %struct.MvCommand, ptr %39, i32 0, i32 2
  store ptr %38, ptr %40, align 8, !tbaa !34
  %41 = load i32, ptr %10, align 4, !tbaa !27
  %42 = load ptr, ptr %13, align 8, !tbaa !29
  %43 = getelementptr inbounds nuw %struct.MvCommand, ptr %42, i32 0, i32 3
  store i32 %41, ptr %43, align 8, !tbaa !35
  %44 = load ptr, ptr %6, align 8, !tbaa !3
  %45 = getelementptr inbounds nuw %struct.Abc_Frame_t_, ptr %44, i32 0, i32 2
  %46 = load ptr, ptr %45, align 8, !tbaa !10
  %47 = load ptr, ptr %13, align 8, !tbaa !29
  %48 = getelementptr inbounds nuw %struct.MvCommand, ptr %47, i32 0, i32 0
  %49 = load ptr, ptr %48, align 8, !tbaa !31
  %50 = load ptr, ptr %13, align 8, !tbaa !29
  %51 = call i32 @st__insert(ptr noundef %46, ptr noundef %49, ptr noundef %50)
  store i32 %51, ptr %14, align 4, !tbaa !27
  call void @llvm.lifetime.end.p0(i64 4, ptr %14) #8
  call void @llvm.lifetime.end.p0(i64 8, ptr %13) #8
  call void @llvm.lifetime.end.p0(i64 8, ptr %12) #8
  call void @llvm.lifetime.end.p0(i64 8, ptr %11) #8
  ret void
}