; Function Attrs: nounwind uwtable
define void @Cmd_CommandAdd(ptr noundef readonly captures(none) %0, ptr noundef %1, ptr noundef %2, ptr noundef %3, i32 noundef %4) local_unnamed_addr #0 {
  %6 = alloca ptr, align 8
  %7 = alloca ptr, align 8
  call void @llvm.lifetime.start.p0(i64 8, ptr nonnull %6) #8
  call void @llvm.lifetime.start.p0(i64 8, ptr nonnull %7) #8
  store ptr %2, ptr %6, align 8, !tbaa !23
  %8 = getelementptr inbounds nuw i8, ptr %0, i64 16
  %9 = load ptr, ptr %8, align 8, !tbaa !3
  %10 = call i32 @st__delete(ptr noundef %9, ptr noundef nonnull %6, ptr noundef nonnull %7) #8
  %.not = icmp eq i32 %10, 0
  br i1 %.not, label %16, label %11

11:                                               ; preds = %5
  %12 = getelementptr inbounds nuw i8, ptr %0, i64 136
  %13 = load ptr, ptr %12, align 8, !tbaa !24
  %14 = call i32 (ptr, ptr, ...) @fprintf(ptr noundef %13, ptr noundef nonnull @.str, ptr noundef %2) #8
  %15 = load ptr, ptr %7, align 8, !tbaa !23
  call void @CmdCommandFree(ptr noundef %15) #8
  br label %16

16:                                               ; preds = %11, %5
  %17 = call noalias dereferenceable_or_null(32) ptr @malloc(i64 noundef 32) #9
  %18 = call ptr @Extra_UtilStrsav(ptr noundef %2) #8
  store ptr %18, ptr %17, align 8, !tbaa !25
  %19 = call ptr @Extra_UtilStrsav(ptr noundef %1) #8
  %20 = getelementptr inbounds nuw i8, ptr %17, i64 8
  store ptr %19, ptr %20, align 8, !tbaa !27
  %21 = getelementptr inbounds nuw i8, ptr %17, i64 16
  store ptr %3, ptr %21, align 8, !tbaa !28
  %22 = getelementptr inbounds nuw i8, ptr %17, i64 24
  store i32 %4, ptr %22, align 8, !tbaa !29
  %23 = load ptr, ptr %8, align 8, !tbaa !3
  %24 = call i32 @st__insert(ptr noundef %23, ptr noundef %18, ptr noundef nonnull %17) #8
  call void @llvm.lifetime.end.p0(i64 8, ptr nonnull %7) #8
  call void @llvm.lifetime.end.p0(i64 8, ptr nonnull %6) #8
  ret void
}